target datalayout = "e-m:e-p270:32:32-p271:32:32-p272:64:64-i64:64-i128:128-f80:128-n8:16:32:64-S128"
target triple = "x86_64-pc-linux-gnu"

%struct.epan_dissect = type { ptr, ptr, ptr, %struct._packet_info }
%struct._packet_info = type { ptr, ptr, i32, i32, %struct.nstime_t, %struct.nstime_t, %struct.nstime_t, i8, ptr, ptr, ptr, ptr, %struct._address, %struct._address, %struct._address, %struct._address, %struct._address, %struct._address, i32, ptr, i8, [3 x i8], %struct.anon, i32, i32, i32, i32, ptr, i8, ptr, ptr, i16, i16, i32, i32, i16, i32, i32, ptr, ptr, ptr, i8, i8, i16, i16, i16, i32, i16, i16, ptr, ptr, ptr, ptr, ptr, i32, i32 }
%struct.nstime_t = type { i64, i32 }
%struct._address = type { i32, i32, ptr, ptr }
%struct.anon = type { i8, [3 x i8] }
%struct._output_fields = type { i8, i8, i8, i8, i8, ptr, ptr, ptr, ptr, ptr, i8, i8, i8 }
%struct.write_json_data = type { ptr, ptr, i8, i8, ptr, ptr }
%struct.json_dumper = type { ptr, ptr, i32, i32, i32, i32, [1100 x i8] }
%struct.epan_column_info = type { ptr, i32, ptr, ptr, ptr, %struct.col_expr_t, i8, ptr }
%struct.col_expr_t = type { ptr, ptr }
%struct.col_item_t = type { i32, ptr, ptr, ptr, i32, ptr, ptr, ptr, ptr, i32, i8, i32 }

@.str.13 = private unnamed_addr constant [6 x i8] c"index\00", align 1
@.str.14 = private unnamed_addr constant [6 x i8] c"_type\00", align 1
@.str.15 = private unnamed_addr constant [4 x i8] c"doc\00", align 1
@.str.16 = private unnamed_addr constant [10 x i8] c"timestamp\00", align 1
@.str.17 = private unnamed_addr constant [10 x i8] c"\22%lu%03d\22\00", align 1
@.str.18 = private unnamed_addr constant [7 x i8] c"layers\00", align 1

; Function Attrs: null_pointer_is_valid sspstrong uwtable
define internal void @write_ek_summary(ptr noundef %0, ptr noundef %1) #0 {
  %3 = alloca ptr, align 8
  %4 = alloca ptr, align 8
  %5 = alloca i32, align 4
  store ptr %0, ptr %3, align 8
  store ptr %1, ptr %4, align 8
  call void @llvm.lifetime.start.p0(i64 4, ptr %5) #15
  store i32 0, ptr %5, align 4
  br label %6

6:                                                ; preds = %35, %2
  %7 = load i32, ptr %5, align 4
  %8 = load ptr, ptr %3, align 8
  %9 = getelementptr inbounds nuw %struct.epan_column_info, ptr %8, i32 0, i32 1
  %10 = load i32, ptr %9, align 8
  %11 = icmp slt i32 %7, %10
  br i1 %11, label %12, label %38

12:                                               ; preds = %6
  %13 = load i32, ptr %5, align 4
  %14 = call zeroext i1 @get_column_visible(i32 noundef %13)
  br i1 %14, label %16, label %15

15:                                               ; preds = %12
  br label %35

16:                                               ; preds = %12
  %17 = load ptr, ptr %4, align 8
  %18 = getelementptr inbounds nuw %struct.write_json_data, ptr %17, i32 0, i32 5
  %19 = load ptr, ptr %18, align 8
  %20 = load ptr, ptr %3, align 8
  %21 = getelementptr inbounds nuw %struct.epan_column_info, ptr %20, i32 0, i32 2
  %22 = load ptr, ptr %21, align 8
  %23 = load i32, ptr %5, align 4
  %24 = sext i32 %23 to i64
  %25 = getelementptr %struct.col_item_t, ptr %22, i64 %24
  %26 = getelementptr inbounds nuw %struct.col_item_t, ptr %25, i32 0, i32 2
  %27 = load ptr, ptr %26, align 8
  %28 = call noalias ptr @g_ascii_strdown(ptr noundef %27, i64 noundef -1)
  call void @json_dumper_set_member_name(ptr noundef %19, ptr noundef %28)
  %29 = load ptr, ptr %4, align 8
  %30 = getelementptr inbounds nuw %struct.write_json_data, ptr %29, i32 0, i32 5
  %31 = load ptr, ptr %30, align 8
  %32 = load ptr, ptr %3, align 8
  %33 = load i32, ptr %5, align 4
  %34 = call ptr @get_column_text(ptr noundef %32, i32 noundef %33)
  call void @json_dumper_value_string(ptr noundef %31, ptr noundef %34)
  br label %35

35:                                               ; preds = %16, %15
  %36 = load i32, ptr %5, align 4
  %37 = add i32 %36, 1
  store i32 %37, ptr %5, align 4
  br label %6, !llvm.loop !20

38:                                               ; preds = %6
  call void @llvm.lifetime.end.p0(i64 4, ptr %5) #15
  ret void
}

; Function Attrs: null_pointer_is_valid sspstrong uwtable
define void @write_ek_proto_tree(ptr noundef %0, i1 noundef zeroext %1, i1 noundef zeroext %2, ptr noundef %3, ptr noundef %4, ptr noundef %5) #0 {
  %7 = alloca ptr, align 8
  %8 = alloca i8, align 1
  %9 = alloca i8, align 1
  %10 = alloca ptr, align 8
  %11 = alloca ptr, align 8
  %12 = alloca ptr, align 8
  %13 = alloca %struct.write_json_data, align 8
  %14 = alloca %struct.json_dumper, align 8
  store ptr %0, ptr %7, align 8
  %15 = zext i1 %1 to i8
  store i8 %15, ptr %8, align 1
  %16 = zext i1 %2 to i8
  store i8 %16, ptr %9, align 1
  store ptr %3, ptr %10, align 8
  store ptr %4, ptr %11, align 8
  store ptr %5, ptr %12, align 8
  br label %17

17:                                               ; preds = %6
  br label %18

18:                                               ; preds = %17
  br label %19

19:                                               ; preds = %18
  br label %20

20:                                               ; preds = %19
  call void @llvm.lifetime.start.p0(i64 40, ptr %13) #15
  call void @llvm.lifetime.start.p0(i64 1136, ptr %14) #15
  call void @llvm.memset.p0.i64(ptr align 8 %14, i8 0, i64 1136, i1 false)
  %21 = getelementptr inbounds nuw %struct.json_dumper, ptr %14, i32 0, i32 0
  %22 = load ptr, ptr %12, align 8
  store ptr %22, ptr %21, align 8
  %23 = getelementptr inbounds nuw %struct.json_dumper, ptr %14, i32 0, i32 2
  store i32 2, ptr %23, align 8
  %24 = getelementptr inbounds nuw %struct.write_json_data, ptr %13, i32 0, i32 5
  store ptr %14, ptr %24, align 8
  call void @json_dumper_begin_object(ptr noundef %14)
  call void @json_dumper_set_member_name(ptr noundef %14, ptr noundef @.str.13)
  call void @json_dumper_begin_object(ptr noundef %14)
  %25 = load ptr, ptr %10, align 8
  call void @write_json_index(ptr noundef %14, ptr noundef %25)
  call void @json_dumper_set_member_name(ptr noundef %14, ptr noundef @.str.14)
  call void @json_dumper_value_string(ptr noundef %14, ptr noundef @.str.15)
  call void @json_dumper_end_object(ptr noundef %14)
  call void @json_dumper_end_object(ptr noundef %14)
  %26 = call zeroext i1 @json_dumper_finish(ptr noundef %14)
  call void @json_dumper_begin_object(ptr noundef %14)
  call void @json_dumper_set_member_name(ptr noundef %14, ptr noundef @.str.16)
  %27 = load ptr, ptr %10, align 8
  %28 = getelementptr inbounds nuw %struct.epan_dissect, ptr %27, i32 0, i32 3
  %29 = getelementptr inbounds nuw %struct._packet_info, ptr %28, i32 0, i32 4
  %30 = getelementptr inbounds nuw %struct.nstime_t, ptr %29, i32 0, i32 0
  %31 = load i64, ptr %30, align 8
  %32 = load ptr, ptr %10, align 8
  %33 = getelementptr inbounds nuw %struct.epan_dissect, ptr %32, i32 0, i32 3
  %34 = getelementptr inbounds nuw %struct._packet_info, ptr %33, i32 0, i32 4
  %35 = getelementptr inbounds nuw %struct.nstime_t, ptr %34, i32 0, i32 1
  %36 = load i32, ptr %35, align 8
  %37 = sdiv i32 %36, 1000000
  call void (ptr, ptr, ...) @json_dumper_value_anyf(ptr noundef %14, ptr noundef @.str.17, i64 noundef %31, i32 noundef %37)
  %38 = load i8, ptr %8, align 1, !range !6, !noundef !7
  %39 = trunc i8 %38 to i1
  br i1 %39, label %40, label %45

40:                                               ; preds = %20
  %41 = load ptr, ptr %10, align 8
  %42 = getelementptr inbounds nuw %struct.epan_dissect, ptr %41, i32 0, i32 3
  %43 = getelementptr inbounds nuw %struct._packet_info, ptr %42, i32 0, i32 1
  %44 = load ptr, ptr %43, align 8
  call void @write_ek_summary(ptr noundef %44, ptr noundef %13)
  br label %45

45:                                               ; preds = %40, %20
  %46 = load ptr, ptr %10, align 8
  %47 = getelementptr inbounds nuw %struct.epan_dissect, ptr %46, i32 0, i32 2
  %48 = load ptr, ptr %47, align 8
  %49 = icmp ne ptr %48, null
  br i1 %49, label %50, label %88

50:                                               ; preds = %45
  call void @json_dumper_set_member_name(ptr noundef %14, ptr noundef @.str.18)
  call void @json_dumper_begin_object(ptr noundef %14)
  %51 = load ptr, ptr %7, align 8
  %52 = icmp eq ptr %51, null
  br i1 %52, label %58, label %53

53:                                               ; preds = %50
  %54 = load ptr, ptr %7, align 8
  %55 = getelementptr inbounds nuw %struct._output_fields, ptr %54, i32 0, i32 5
  %56 = load ptr, ptr %55, align 8
  %57 = icmp eq ptr %56, null
  br i1 %57, label %58, label %81

58:                                               ; preds = %53, %50
  %59 = load ptr, ptr %10, align 8
  %60 = getelementptr inbounds nuw %struct.epan_dissect, ptr %59, i32 0, i32 3
  %61 = getelementptr inbounds nuw %struct._packet_info, ptr %60, i32 0, i32 11
  %62 = load ptr, ptr %61, align 8
  %63 = getelementptr inbounds nuw %struct.write_json_data, ptr %13, i32 0, i32 0
  store ptr %62, ptr %63, align 8
  %64 = load ptr, ptr %7, align 8
  %65 = icmp ne ptr %64, null
  br i1 %65, label %66, label %70

66:                                               ; preds = %58
  %67 = load ptr, ptr %7, align 8
  %68 = getelementptr inbounds nuw %struct._output_fields, ptr %67, i32 0, i32 9
  %69 = load ptr, ptr %68, align 8
  br label %71

70:                                               ; preds = %58
  br label %71

71:                                               ; preds = %70, %66
  %72 = phi ptr [ %69, %66 ], [ null, %70 ]
  %73 = getelementptr inbounds nuw %struct.write_json_data, ptr %13, i32 0, i32 1
  store ptr %72, ptr %73, align 8
  %74 = load i8, ptr %9, align 1, !range !6, !noundef !7
  %75 = trunc i8 %74 to i1
  %76 = getelementptr inbounds nuw %struct.write_json_data, ptr %13, i32 0, i32 2
  %77 = zext i1 %75 to i8
  store i8 %77, ptr %76, align 8
  %78 = load ptr, ptr %10, align 8
  %79 = getelementptr inbounds nuw %struct.epan_dissect, ptr %78, i32 0, i32 2
  %80 = load ptr, ptr %79, align 8
  call void @proto_tree_write_node_ek(ptr noundef %80, ptr noundef %13)
  br label %87

81:                                               ; preds = %53
  %82 = load ptr, ptr %7, align 8
  %83 = load ptr, ptr %10, align 8
  %84 = load ptr, ptr %11, align 8
  %85 = getelementptr inbounds nuw %struct.write_json_data, ptr %13, i32 0, i32 5
  %86 = load ptr, ptr %85, align 8
  call void @write_specified_fields(i32 noundef 2, ptr noundef %82, ptr noundef %83, ptr noundef %84, ptr noundef null, ptr noundef %86)
  br label %87

87:                                               ; preds = %81, %71
  call void @json_dumper_end_object(ptr noundef %14)
  br label %88

88:                                               ; preds = %87, %45
  call void @json_dumper_end_object(ptr noundef %14)
  %89 = call zeroext i1 @json_dumper_finish(ptr noundef %14)
  call void @llvm.lifetime.end.p0(i64 1136, ptr %14) #15
  call void @llvm.lifetime.end.p0(i64 40, ptr %13) #15
  ret void
}