; Function Attrs: null_pointer_is_valid sspstrong uwtable
define void @write_ek_proto_tree(ptr noundef %0, i1 noundef zeroext %1, i1 noundef zeroext %2, ptr noundef %3, ptr noundef readnone captures(none) %4, ptr noundef %5) local_unnamed_addr #0 {
  %7 = alloca %struct.write_json_data, align 8
  %8 = alloca %struct.json_dumper, align 8
  %9 = zext i1 %2 to i8
  call void @llvm.lifetime.start.p0(i64 40, ptr nonnull %7) #21
  call void @llvm.lifetime.start.p0(i64 1136, ptr nonnull %8) #21
  %10 = getelementptr inbounds nuw i8, ptr %8, i64 8
  call void @llvm.memset.p0.i64(ptr noundef nonnull align 8 dereferenceable(1136) %10, i8 0, i64 1128, i1 false)
  store ptr %5, ptr %8, align 8
  %11 = getelementptr inbounds nuw i8, ptr %8, i64 16
  store i32 2, ptr %11, align 8
  %12 = getelementptr inbounds nuw i8, ptr %7, i64 32
  store ptr %8, ptr %12, align 8
  call void @json_dumper_begin_object(ptr noundef nonnull %8)
  call void @json_dumper_set_member_name(ptr noundef nonnull %8, ptr noundef nonnull @.str.13)
  call void @json_dumper_begin_object(ptr noundef nonnull %8)
  call fastcc void @write_json_index(ptr noundef nonnull %8, ptr noundef %3)
  call void @json_dumper_set_member_name(ptr noundef nonnull %8, ptr noundef nonnull @.str.14)
  call void @json_dumper_value_string(ptr noundef nonnull %8, ptr noundef nonnull @.str.15)
  call void @json_dumper_end_object(ptr noundef nonnull %8)
  call void @json_dumper_end_object(ptr noundef nonnull %8)
  %13 = call zeroext i1 @json_dumper_finish(ptr noundef nonnull %8)
  call void @json_dumper_begin_object(ptr noundef nonnull %8)
  call void @json_dumper_set_member_name(ptr noundef nonnull %8, ptr noundef nonnull @.str.16)
  %14 = getelementptr inbounds nuw i8, ptr %3, i64 48
  %15 = load i64, ptr %14, align 8
  %16 = getelementptr inbounds nuw i8, ptr %3, i64 56
  %17 = load i32, ptr %16, align 8
  %18 = sdiv i32 %17, 1000000
  call void (ptr, ptr, ...) @json_dumper_value_anyf(ptr noundef nonnull %8, ptr noundef nonnull @.str.17, i64 noundef %15, i32 noundef %18)
  br i1 %1, label %19, label %write_ek_summary.exit

19:                                               ; preds = %6
  %20 = getelementptr inbounds nuw i8, ptr %3, i64 32
  %21 = load ptr, ptr %20, align 8
  %22 = getelementptr inbounds nuw i8, ptr %21, i64 8
  %23 = load i32, ptr %22, align 8
  %24 = icmp sgt i32 %23, 0
  br i1 %24, label %.lr.ph.i, label %write_ek_summary.exit

.lr.ph.i:                                         ; preds = %19
  %25 = getelementptr inbounds nuw i8, ptr %21, i64 16
  br label %26

26:                                               ; preds = %37, %.lr.ph.i
  %27 = phi ptr [ %8, %.lr.ph.i ], [ %38, %37 ]
  %indvars.iv.i = phi i64 [ 0, %.lr.ph.i ], [ %indvars.iv.next.i, %37 ]
  %28 = trunc nuw nsw i64 %indvars.iv.i to i32
  %29 = call zeroext i1 @get_column_visible(i32 noundef %28)
  br i1 %29, label %30, label %37

30:                                               ; preds = %26
  %31 = load ptr, ptr %25, align 8
  %32 = getelementptr %struct.col_item_t, ptr %31, i64 %indvars.iv.i, i32 2
  %33 = load ptr, ptr %32, align 8
  %34 = call noalias ptr @g_ascii_strdown(ptr noundef %33, i64 noundef -1)
  call void @json_dumper_set_member_name(ptr noundef %27, ptr noundef %34)
  %35 = load ptr, ptr %12, align 8
  %36 = call ptr @get_column_text(ptr noundef %21, i32 noundef %28)
  call void @json_dumper_value_string(ptr noundef %35, ptr noundef %36)
  br label %37

37:                                               ; preds = %30, %26
  %38 = phi ptr [ %35, %30 ], [ %27, %26 ]
  %indvars.iv.next.i = add nuw nsw i64 %indvars.iv.i, 1
  %39 = load i32, ptr %22, align 8
  %40 = sext i32 %39 to i64
  %41 = icmp slt i64 %indvars.iv.next.i, %40
  br i1 %41, label %26, label %write_ek_summary.exit, !llvm.loop !21

write_ek_summary.exit:                            ; preds = %37, %19, %6
  %42 = phi ptr [ %8, %19 ], [ %8, %6 ], [ %38, %37 ]
  %43 = getelementptr inbounds nuw i8, ptr %3, i64 16
  %44 = load ptr, ptr %43, align 8
  %.not = icmp eq ptr %44, null
  br i1 %.not, label %65, label %45

45:                                               ; preds = %write_ek_summary.exit
  call void @json_dumper_set_member_name(ptr noundef nonnull %8, ptr noundef nonnull @.str.18)
  call void @json_dumper_begin_object(ptr noundef nonnull %8)
  %46 = icmp eq ptr %0, null
  br i1 %46, label %.thread, label %49

.thread:                                          ; preds = %45
  %47 = getelementptr inbounds nuw i8, ptr %3, i64 128
  %48 = load ptr, ptr %47, align 8
  store ptr %48, ptr %7, align 8
  br label %58

49:                                               ; preds = %45
  %50 = getelementptr inbounds nuw i8, ptr %0, i64 8
  %51 = load ptr, ptr %50, align 8
  %52 = icmp eq ptr %51, null
  br i1 %52, label %53, label %63

53:                                               ; preds = %49
  %54 = getelementptr inbounds nuw i8, ptr %3, i64 128
  %55 = load ptr, ptr %54, align 8
  store ptr %55, ptr %7, align 8
  %56 = getelementptr inbounds nuw i8, ptr %0, i64 40
  %57 = load ptr, ptr %56, align 8
  br label %58

58:                                               ; preds = %.thread, %53
  %59 = phi ptr [ %57, %53 ], [ null, %.thread ]
  %60 = getelementptr inbounds nuw i8, ptr %7, i64 8
  store ptr %59, ptr %60, align 8
  %61 = getelementptr inbounds nuw i8, ptr %7, i64 16
  store i8 %9, ptr %61, align 8
  %62 = load ptr, ptr %43, align 8
  call fastcc void @proto_tree_write_node_ek(ptr noundef %62, ptr noundef nonnull %7)
  br label %64

63:                                               ; preds = %49
  call fastcc void @write_specified_fields(i32 noundef 2, ptr noundef nonnull %0, ptr noundef %3, ptr noundef null, ptr noundef %42)
  br label %64

64:                                               ; preds = %63, %58
  call void @json_dumper_end_object(ptr noundef nonnull %8)
  br label %65

65:                                               ; preds = %64, %write_ek_summary.exit
  call void @json_dumper_end_object(ptr noundef nonnull %8)
  %66 = call zeroext i1 @json_dumper_finish(ptr noundef nonnull %8)
  call void @llvm.lifetime.end.p0(i64 1136, ptr nonnull %8) #21
  call void @llvm.lifetime.end.p0(i64 40, ptr nonnull %7) #21
  ret void
}